; ModuleID = '21/1120.c'
source_filename = "21/1120.c"
target datalayout = "e-m:e-p270:32:32-p271:32:32-p272:64:64-i64:64-f80:128-n8:16:32:64-S128"
target triple = "x86_64-pc-linux-gnu"

@.str = private unnamed_addr constant [3 x i8] c"%d\00", align 1
@.str.1 = private unnamed_addr constant [6 x i8] c"%d,%d\00", align 1

; Function Attrs: noinline nounwind uwtable
define dso_local i32 @main() #0 {
  %1 = alloca i32, align 4
  %2 = alloca i32, align 4
  %3 = alloca i32, align 4
  %4 = alloca i32, align 4
  %5 = alloca i32, align 4
  %6 = alloca [500 x i32], align 16
  %7 = alloca float, align 4
  store i32 0, i32* %1, align 4
  %8 = call i32 (i8*, ...) @__isoc99_scanf(i8* getelementptr inbounds ([3 x i8], [3 x i8]* @.str, i64 0, i64 0), i32* %3)
  store i32 0, i32* %2, align 4
  store float 0.000000e+00, float* %7, align 4
  br label %9

9:                                                ; preds = %25, %0
  %10 = load i32, i32* %2, align 4
  %11 = load i32, i32* %3, align 4
  %12 = icmp slt i32 %10, %11
  br i1 %12, label %13, label %28

13:                                               ; preds = %9
  %14 = load i32, i32* %2, align 4
  %15 = sext i32 %14 to i64
  %16 = getelementptr inbounds [500 x i32], [500 x i32]* %6, i64 0, i64 %15
  %17 = call i32 (i8*, ...) @__isoc99_scanf(i8* getelementptr inbounds ([3 x i8], [3 x i8]* @.str, i64 0, i64 0), i32* %16)
  %18 = load float, float* %7, align 4
  %19 = load i32, i32* %2, align 4
  %20 = sext i32 %19 to i64
  %21 = getelementptr inbounds [500 x i32], [500 x i32]* %6, i64 0, i64 %20
  %22 = load i32, i32* %21, align 4
  %23 = sitofp i32 %22 to float
  %24 = fadd float %18, %23
  store float %24, float* %7, align 4
  br label %25

25:                                               ; preds = %13
  %26 = load i32, i32* %2, align 4
  %27 = add nsw i32 %26, 1
  store i32 %27, i32* %2, align 4
  br label %9

28:                                               ; preds = %9
  %29 = load float, float* %7, align 4
  %30 = load i32, i32* %3, align 4
  %31 = sitofp i32 %30 to float
  %32 = fdiv float %29, %31
  store float %32, float* %7, align 4
  store i32 0, i32* %2, align 4
  br label %33

33:                                               ; preds = %75, %28
  %34 = load i32, i32* %2, align 4
  %35 = load i32, i32* %3, align 4
  %36 = icmp slt i32 %34, %35
  br i1 %36, label %37, label %78

37:                                               ; preds = %33
  %38 = load i32, i32* %2, align 4
  %39 = add nsw i32 %38, 1
  store i32 %39, i32* %4, align 4
  br label %40

40:                                               ; preds = %71, %37
  %41 = load i32, i32* %4, align 4
  %42 = load i32, i32* %3, align 4
  %43 = icmp slt i32 %41, %42
  br i1 %43, label %44, label %74

44:                                               ; preds = %40
  %45 = load i32, i32* %4, align 4
  %46 = sext i32 %45 to i64
  %47 = getelementptr inbounds [500 x i32], [500 x i32]* %6, i64 0, i64 %46
  %48 = load i32, i32* %47, align 4
  %49 = load i32, i32* %2, align 4
  %50 = sext i32 %49 to i64
  %51 = getelementptr inbounds [500 x i32], [500 x i32]* %6, i64 0, i64 %50
  %52 = load i32, i32* %51, align 4
  %53 = icmp slt i32 %48, %52
  br i1 %53, label %54, label %70

54:                                               ; preds = %44
  %55 = load i32, i32* %4, align 4
  %56 = sext i32 %55 to i64
  %57 = getelementptr inbounds [500 x i32], [500 x i32]* %6, i64 0, i64 %56
  %58 = load i32, i32* %57, align 4
  store i32 %58, i32* %5, align 4
  %59 = load i32, i32* %2, align 4
  %60 = sext i32 %59 to i64
  %61 = getelementptr inbounds [500 x i32], [500 x i32]* %6, i64 0, i64 %60
  %62 = load i32, i32* %61, align 4
  %63 = load i32, i32* %4, align 4
  %64 = sext i32 %63 to i64
  %65 = getelementptr inbounds [500 x i32], [500 x i32]* %6, i64 0, i64 %64
  store i32 %62, i32* %65, align 4
  %66 = load i32, i32* %5, align 4
  %67 = load i32, i32* %2, align 4
  %68 = sext i32 %67 to i64
  %69 = getelementptr inbounds [500 x i32], [500 x i32]* %6, i64 0, i64 %68
  store i32 %66, i32* %69, align 4
  br label %70

70:                                               ; preds = %54, %44
  br label %71

71:                                               ; preds = %70
  %72 = load i32, i32* %4, align 4
  %73 = add nsw i32 %72, 1
  store i32 %73, i32* %4, align 4
  br label %40

74:                                               ; preds = %40
  br label %75

75:                                               ; preds = %74
  %76 = load i32, i32* %2, align 4
  %77 = add nsw i32 %76, 1
  store i32 %77, i32* %2, align 4
  br label %33

78:                                               ; preds = %33
  %79 = load float, float* %7, align 4
  %80 = fpext float %79 to double
  %81 = getelementptr inbounds [500 x i32], [500 x i32]* %6, i64 0, i64 0
  %82 = load i32, i32* %81, align 16
  %83 = sitofp i32 %82 to double
  %84 = fmul double %83, 1.000000e+00
  %85 = fsub double %80, %84
  %86 = load i32, i32* %3, align 4
  %87 = sub nsw i32 %86, 1
  %88 = sext i32 %87 to i64
  %89 = getelementptr inbounds [500 x i32], [500 x i32]* %6, i64 0, i64 %88
  %90 = load i32, i32* %89, align 4
  %91 = sitofp i32 %90 to double
  %92 = fmul double %91, 1.000000e+00
  %93 = load float, float* %7, align 4
  %94 = fpext float %93 to double
  %95 = fsub double %92, %94
  %96 = fcmp ogt double %85, %95
  br i1 %96, label %97, label %101

97:                                               ; preds = %78
  %98 = getelementptr inbounds [500 x i32], [500 x i32]* %6, i64 0, i64 0
  %99 = load i32, i32* %98, align 16
  %100 = call i32 (i8*, ...) @printf(i8* getelementptr inbounds ([3 x i8], [3 x i8]* @.str, i64 0, i64 0), i32 %99)
  br label %101

101:                                              ; preds = %97, %78
  %102 = load float, float* %7, align 4
  %103 = fpext float %102 to double
  %104 = getelementptr inbounds [500 x i32], [500 x i32]* %6, i64 0, i64 0
  %105 = load i32, i32* %104, align 16
  %106 = sitofp i32 %105 to double
  %107 = fmul double %106, 1.000000e+00
  %108 = fsub double %103, %107
  %109 = load i32, i32* %3, align 4
  %110 = sub nsw i32 %109, 1
  %111 = sext i32 %110 to i64
  %112 = getelementptr inbounds [500 x i32], [500 x i32]* %6, i64 0, i64 %111
  %113 = load i32, i32* %112, align 4
  %114 = sitofp i32 %113 to double
  %115 = fmul double %114, 1.000000e+00
  %116 = load float, float* %7, align 4
  %117 = fpext float %116 to double
  %118 = fsub double %115, %117
  %119 = fcmp olt double %108, %118
  br i1 %119, label %120, label %127

120:                                              ; preds = %101
  %121 = load i32, i32* %3, align 4
  %122 = sub nsw i32 %121, 1
  %123 = sext i32 %122 to i64
  %124 = getelementptr inbounds [500 x i32], [500 x i32]* %6, i64 0, i64 %123
  %125 = load i32, i32* %124, align 4
  %126 = call i32 (i8*, ...) @printf(i8* getelementptr inbounds ([3 x i8], [3 x i8]* @.str, i64 0, i64 0), i32 %125)
  br label %127

127:                                              ; preds = %120, %101
  %128 = load float, float* %7, align 4
  %129 = fpext float %128 to double
  %130 = getelementptr inbounds [500 x i32], [500 x i32]* %6, i64 0, i64 0
  %131 = load i32, i32* %130, align 16
  %132 = sitofp i32 %131 to double
  %133 = fmul double %132, 1.000000e+00
  %134 = fsub double %129, %133
  %135 = load i32, i32* %3, align 4
  %136 = sub nsw i32 %135, 1
  %137 = sext i32 %136 to i64
  %138 = getelementptr inbounds [500 x i32], [500 x i32]* %6, i64 0, i64 %137
  %139 = load i32, i32* %138, align 4
  %140 = sitofp i32 %139 to double
  %141 = fmul double %140, 1.000000e+00
  %142 = load float, float* %7, align 4
  %143 = fpext float %142 to double
  %144 = fsub double %141, %143
  %145 = fcmp oeq double %134, %144
  br i1 %145, label %146, label %155

146:                                              ; preds = %127
  %147 = getelementptr inbounds [500 x i32], [500 x i32]* %6, i64 0, i64 0
  %148 = load i32, i32* %147, align 16
  %149 = load i32, i32* %3, align 4
  %150 = sub nsw i32 %149, 1
  %151 = sext i32 %150 to i64
  %152 = getelementptr inbounds [500 x i32], [500 x i32]* %6, i64 0, i64 %151
  %153 = load i32, i32* %152, align 4
  %154 = call i32 (i8*, ...) @printf(i8* getelementptr inbounds ([6 x i8], [6 x i8]* @.str.1, i64 0, i64 0), i32 %148, i32 %153)
  br label %155

155:                                              ; preds = %146, %127
  ret i32 0
}

declare dso_local i32 @__isoc99_scanf(i8*, ...) #1

declare dso_local i32 @printf(i8*, ...) #1


!llvm.module.flags = !{!0}
!llvm.ident = !{!1}

!0 = !{i32 1, !"wchar_size", i32 4}
!1 = !{!"clang version 10.0.0-4ubuntu1 "}
